ccopy_reg
_reconstructor
p0
(csklearn.preprocessing.data
StandardScaler
p1
c__builtin__
object
p2
Ntp3
Rp4
(dp5
S'mean_'
p6
cnumpy.core.multiarray
_reconstruct
p7
(cnumpy
ndarray
p8
(I0
tp9
S'b'
p10
tp11
Rp12
(I1
(I5
tp13
cnumpy
dtype
p14
(S'f8'
p15
I0
I1
tp16
Rp17
(I3
S'<'
p18
NNNI-1
I-1
I0
tp19
bI00
S'[\xb4\x01O9\x14\x85\xbd\n\xc2\xdc(\x05Pa=\x15\xbbw\x156\x024=6M$\xbc\\w?\xbd\xf7\x96G\xf6f\x11@='
p20
tp21
bsS'with_mean'
p22
I01
sS'var_'
p23
g7
(g8
(I0
tp24
g10
tp25
Rp26
(I1
(I5
tp27
g17
I00
S'nt\x96\xcf\xfbRxA\xe2C\tE\x13\x04\x1eA\xf7\x01sy*y\x06AI\xad\x8e\xfd\xa9m\xdb@u\xe2\xb3\xa0\xb1\xbf\xc7@'
p28
tp29
bsS'scale_'
p30
g7
(g8
(I0
tp31
g10
tp32
Rp33
(I1
(I5
tp34
g17
I00
S'\xe91E\xbdQ\xba\xb3@GH\x06\xb8*\xea\x85@\xc4I\xf5\xe2\x1f\xd1z@\xc3\xf5]W\xe7\xf2d@s\x96\x08ZA\x91[@'
p35
tp36
bsS'with_std'
p37
I01
sS'n_samples_seen_'
p38
cnumpy.core.multiarray
scalar
p39
(g14
(S'i8'
p40
I0
I1
tp41
Rp42
(I3
S'<'
p43
NNNI-1
I-1
I0
tp44
bS'j+\x00\x00\x00\x00\x00\x00'
p45
tp46
Rp47
sS'_sklearn_version'
p48
S'0.20.3'
p49
sS'copy'
p50
I01
sb.