ccopy_reg
_reconstructor
p0
(csklearn.preprocessing.data
StandardScaler
p1
c__builtin__
object
p2
Ntp3
Rp4
(dp5
S'mean_'
p6
cnumpy.core.multiarray
_reconstruct
p7
(cnumpy
ndarray
p8
(I0
tp9
S'b'
p10
tp11
Rp12
(I1
(I4
tp13
cnumpy
dtype
p14
(S'f8'
p15
I0
I1
tp16
Rp17
(I3
S'<'
p18
NNNI-1
I-1
I0
tp19
bI00
S"\xd4\x9d\xe6\xea\xe1x\x88=2\xd8\xdf\x11\x0cRZ\xbd'\xafN\x84\xa8\x1e0=\x1d\x05\xed\xab<O9\xbd"
p20
tp21
bsS'with_mean'
p22
I01
sS'var_'
p23
g7
(g8
(I0
tp24
g10
tp25
Rp26
(I1
(I4
tp27
g17
I00
S'\xf3\x9d\x0c\x1c\xeb\x01zAMj\xec\xf2%\xa3\x1dA\xdf2\x18~\xbe-\x01A\xcb\xdb\xb5@\x98c\xd3@'
p28
tp29
bsS'scale_'
p30
g7
(g8
(I0
tp31
g10
tp32
Rp33
(I1
(I4
tp34
g17
I00
S'\x05.\x8c\xfc%f\xb4@\xb68\xe8\xd4\xab\xc6\x85@%\xce\xbab1rw@~\x19\xach\xfa\x9ca@'
p35
tp36
bsS'with_std'
p37
I01
sS'n_samples_seen_'
p38
cnumpy.core.multiarray
scalar
p39
(g14
(S'i8'
p40
I0
I1
tp41
Rp42
(I3
S'<'
p43
NNNI-1
I-1
I0
tp44
bS'j+\x00\x00\x00\x00\x00\x00'
p45
tp46
Rp47
sS'_sklearn_version'
p48
S'0.20.3'
p49
sS'copy'
p50
I01
sb.