ccopy_reg
_reconstructor
p0
(csklearn.preprocessing.data
StandardScaler
p1
c__builtin__
object
p2
Ntp3
Rp4
(dp5
S'mean_'
p6
cnumpy.core.multiarray
_reconstruct
p7
(cnumpy
ndarray
p8
(I0
tp9
S'b'
p10
tp11
Rp12
(I1
(I5
tp13
cnumpy
dtype
p14
(S'f8'
p15
I0
I1
tp16
Rp17
(I3
S'<'
p18
NNNI-1
I-1
I0
tp19
bI00
S'\xfc\x94\xa6`V\x19x=V\x12\xea\xebc\xcbX\xbd\xb0\n\xb8\xf1\x1d^[=zI\xd1\xdd\rgT\xbd\xa7&um\xd8\xce\x1e='
p20
tp21
bsS'with_mean'
p22
I01
sS'var_'
p23
g7
(g8
(I0
tp24
g10
tp25
Rp26
(I1
(I5
tp27
g17
I00
S'\x9f\xa9\xd3\xc8tVxA\xbdzgMx\x08\x1eA=t\x8c\xbe\x86|\x06A\\,!6\x87q\xdb@J\x189Y\x98\xbf\xc7@'
p28
tp29
bsS'scale_'
p30
g7
(g8
(I0
tp31
g10
tp32
Rp33
(I1
(I5
tp34
g17
I00
S'/_H/\xba\xbb\xb3@sF\xe4Z\xc5\xeb\x85@\xb6+\x03\x15!\xd3z@\xf7\xb0@\x0ea\xf4d@\x86\xf9\xff\xad2\x91[@'
p35
tp36
bsS'with_std'
p37
I01
sS'n_samples_seen_'
p38
cnumpy.core.multiarray
scalar
p39
(g14
(S'i8'
p40
I0
I1
tp41
Rp42
(I3
S'<'
p43
NNNI-1
I-1
I0
tp44
bS'j+\x00\x00\x00\x00\x00\x00'
p45
tp46
Rp47
sS'_sklearn_version'
p48
S'0.20.4'
p49
sS'copy'
p50
I01
sb.